; Function Attrs: mustprogress nofree norecurse nosync nounwind willreturn memory(argmem: read) uwtable
define hidden noundef zeroext i1 @_ZN12ConstantPool21klass_name_at_matchesEPK13InstanceKlassi(ptr nocapture noundef nonnull readonly align 8 dereferenceable(68) %0, ptr nocapture noundef readonly %1, i32 noundef %2) local_unnamed_addr #6 align 2 {
  %4 = getelementptr inbounds i8, ptr %0, i64 72
  %5 = sext i32 %2 to i64
  %6 = getelementptr inbounds i64, ptr %4, i64 %5
  %7 = load i32, ptr %6, align 8
  %8 = lshr i32 %7, 16
  %9 = zext nneg i32 %8 to i64
  %10 = getelementptr inbounds i64, ptr %4, i64 %9
  %11 = load ptr, ptr %10, align 8
  %12 = getelementptr inbounds i8, ptr %1, i64 24
  %13 = load ptr, ptr %12, align 8
  %14 = icmp eq ptr %11, %13
  ret i1 %14
}